target datalayout = "e-m:e-p270:32:32-p271:32:32-p272:64:64-i64:64-i128:128-f80:128-n8:16:32:64-S128"
target triple = "x86_64-pc-linux-gnu"

%struct.b2HashSet = type { ptr, i32, i32 }
%struct.b2IntArray = type { ptr, i32, i32 }
%struct.b2DynamicTree = type { ptr, i32, i32, i32, i32, i32, ptr, ptr, ptr, ptr, i32 }
%struct.b2BroadPhase = type { [3 x %struct.b2DynamicTree], i32, %struct.b2HashSet, %struct.b2IntArray, ptr, ptr, i32, %struct.b2AtomicInt, %struct.b2HashSet }
%struct.b2AtomicInt = type { i32 }

; Function Attrs: inlinehint nounwind uwtable
define internal i32 @b2IntArray_RemoveSwap(ptr noundef %0, i32 noundef %1) #4 {
  %3 = alloca ptr, align 8
  %4 = alloca i32, align 4
  %5 = alloca i32, align 4
  store ptr %0, ptr %3, align 8, !tbaa !94
  store i32 %1, ptr %4, align 4, !tbaa !20
  call void @llvm.lifetime.start.p0(i64 4, ptr %5) #8
  store i32 -1, ptr %5, align 4, !tbaa !20
  %6 = load i32, ptr %4, align 4, !tbaa !20
  %7 = load ptr, ptr %3, align 8, !tbaa !94
  %8 = getelementptr inbounds nuw %struct.b2IntArray, ptr %7, i32 0, i32 1
  %9 = load i32, ptr %8, align 8, !tbaa !122
  %10 = sub nsw i32 %9, 1
  %11 = icmp ne i32 %6, %10
  br i1 %11, label %12, label %30

12:                                               ; preds = %2
  %13 = load ptr, ptr %3, align 8, !tbaa !94
  %14 = getelementptr inbounds nuw %struct.b2IntArray, ptr %13, i32 0, i32 1
  %15 = load i32, ptr %14, align 8, !tbaa !122
  %16 = sub nsw i32 %15, 1
  store i32 %16, ptr %5, align 4, !tbaa !20
  %17 = load ptr, ptr %3, align 8, !tbaa !94
  %18 = getelementptr inbounds nuw %struct.b2IntArray, ptr %17, i32 0, i32 0
  %19 = load ptr, ptr %18, align 8, !tbaa !129
  %20 = load i32, ptr %5, align 4, !tbaa !20
  %21 = sext i32 %20 to i64
  %22 = getelementptr inbounds i32, ptr %19, i64 %21
  %23 = load i32, ptr %22, align 4, !tbaa !20
  %24 = load ptr, ptr %3, align 8, !tbaa !94
  %25 = getelementptr inbounds nuw %struct.b2IntArray, ptr %24, i32 0, i32 0
  %26 = load ptr, ptr %25, align 8, !tbaa !129
  %27 = load i32, ptr %4, align 4, !tbaa !20
  %28 = sext i32 %27 to i64
  %29 = getelementptr inbounds i32, ptr %26, i64 %28
  store i32 %23, ptr %29, align 4, !tbaa !20
  br label %30

30:                                               ; preds = %12, %2
  %31 = load ptr, ptr %3, align 8, !tbaa !94
  %32 = getelementptr inbounds nuw %struct.b2IntArray, ptr %31, i32 0, i32 1
  %33 = load i32, ptr %32, align 8, !tbaa !122
  %34 = sub nsw i32 %33, 1
  store i32 %34, ptr %32, align 8, !tbaa !122
  %35 = load i32, ptr %5, align 4, !tbaa !20
  call void @llvm.lifetime.end.p0(i64 4, ptr %5) #8
  ret i32 %35
}

; Function Attrs: inlinehint nounwind uwtable
define internal void @b2UnBufferMove(ptr noundef %0, i32 noundef %1) #4 {
  %3 = alloca ptr, align 8
  %4 = alloca i32, align 4
  %5 = alloca i8, align 1
  %6 = alloca i32, align 4
  %7 = alloca i32, align 4
  %8 = alloca i32, align 4
  store ptr %0, ptr %3, align 8, !tbaa !3
  store i32 %1, ptr %4, align 4, !tbaa !20
  call void @llvm.lifetime.start.p0(i64 1, ptr %5) #8
  %9 = load ptr, ptr %3, align 8, !tbaa !3
  %10 = getelementptr inbounds nuw %struct.b2BroadPhase, ptr %9, i32 0, i32 2
  %11 = load i32, ptr %4, align 4, !tbaa !20
  %12 = add nsw i32 %11, 1
  %13 = sext i32 %12 to i64
  %14 = call zeroext i1 @b2RemoveKey(ptr noundef %10, i64 noundef %13)
  %15 = zext i1 %14 to i8
  store i8 %15, ptr %5, align 1, !tbaa !40
  %16 = load i8, ptr %5, align 1, !tbaa !40, !range !42, !noundef !43
  %17 = trunc i8 %16 to i1
  br i1 %17, label %18, label %50

18:                                               ; preds = %2
  call void @llvm.lifetime.start.p0(i64 4, ptr %6) #8
  %19 = load ptr, ptr %3, align 8, !tbaa !3
  %20 = getelementptr inbounds nuw %struct.b2BroadPhase, ptr %19, i32 0, i32 3
  %21 = getelementptr inbounds nuw %struct.b2IntArray, ptr %20, i32 0, i32 1
  %22 = load i32, ptr %21, align 8, !tbaa !44
  store i32 %22, ptr %6, align 4, !tbaa !20
  call void @llvm.lifetime.start.p0(i64 4, ptr %7) #8
  store i32 0, ptr %7, align 4, !tbaa !20
  br label %23

23:                                               ; preds = %45, %18
  %24 = load i32, ptr %7, align 4, !tbaa !20
  %25 = load i32, ptr %6, align 4, !tbaa !20
  %26 = icmp slt i32 %24, %25
  br i1 %26, label %28, label %27

27:                                               ; preds = %23
  store i32 2, ptr %8, align 4
  br label %48

28:                                               ; preds = %23
  %29 = load ptr, ptr %3, align 8, !tbaa !3
  %30 = getelementptr inbounds nuw %struct.b2BroadPhase, ptr %29, i32 0, i32 3
  %31 = getelementptr inbounds nuw %struct.b2IntArray, ptr %30, i32 0, i32 0
  %32 = load ptr, ptr %31, align 8, !tbaa !45
  %33 = load i32, ptr %7, align 4, !tbaa !20
  %34 = sext i32 %33 to i64
  %35 = getelementptr inbounds i32, ptr %32, i64 %34
  %36 = load i32, ptr %35, align 4, !tbaa !20
  %37 = load i32, ptr %4, align 4, !tbaa !20
  %38 = icmp eq i32 %36, %37
  br i1 %38, label %39, label %44

39:                                               ; preds = %28
  %40 = load ptr, ptr %3, align 8, !tbaa !3
  %41 = getelementptr inbounds nuw %struct.b2BroadPhase, ptr %40, i32 0, i32 3
  %42 = load i32, ptr %7, align 4, !tbaa !20
  %43 = call i32 @b2IntArray_RemoveSwap(ptr noundef %41, i32 noundef %42)
  store i32 2, ptr %8, align 4
  br label %48

44:                                               ; preds = %28
  br label %45

45:                                               ; preds = %44
  %46 = load i32, ptr %7, align 4, !tbaa !20
  %47 = add nsw i32 %46, 1
  store i32 %47, ptr %7, align 4, !tbaa !20
  br label %23, !llvm.loop !46

48:                                               ; preds = %39, %27
  call void @llvm.lifetime.end.p0(i64 4, ptr %7) #8
  br label %49

49:                                               ; preds = %48
  call void @llvm.lifetime.end.p0(i64 4, ptr %6) #8
  br label %50

50:                                               ; preds = %49, %2
  call void @llvm.lifetime.end.p0(i64 1, ptr %5) #8
  ret void
}

; Function Attrs: nounwind uwtable
define hidden void @b2BroadPhase_DestroyProxy(ptr noundef %0, i32 noundef %1) #0 {
  %3 = alloca ptr, align 8
  %4 = alloca i32, align 4
  %5 = alloca i32, align 4
  %6 = alloca i32, align 4
  store ptr %0, ptr %3, align 8, !tbaa !3
  store i32 %1, ptr %4, align 4, !tbaa !20
  %7 = load ptr, ptr %3, align 8, !tbaa !3
  %8 = load i32, ptr %4, align 4, !tbaa !20
  call void @b2UnBufferMove(ptr noundef %7, i32 noundef %8)
  %9 = load ptr, ptr %3, align 8, !tbaa !3
  %10 = getelementptr inbounds nuw %struct.b2BroadPhase, ptr %9, i32 0, i32 1
  %11 = load i32, ptr %10, align 8, !tbaa !8
  %12 = add nsw i32 %11, -1
  store i32 %12, ptr %10, align 8, !tbaa !8
  call void @llvm.lifetime.start.p0(i64 4, ptr %5) #8
  %13 = load i32, ptr %4, align 4, !tbaa !20
  %14 = and i32 %13, 3
  store i32 %14, ptr %5, align 4, !tbaa !20
  call void @llvm.lifetime.start.p0(i64 4, ptr %6) #8
  %15 = load i32, ptr %4, align 4, !tbaa !20
  %16 = ashr i32 %15, 2
  store i32 %16, ptr %6, align 4, !tbaa !20
  %17 = load ptr, ptr %3, align 8, !tbaa !3
  %18 = getelementptr inbounds nuw %struct.b2BroadPhase, ptr %17, i32 0, i32 0
  %19 = getelementptr inbounds [3 x %struct.b2DynamicTree], ptr %18, i64 0, i64 0
  %20 = load i32, ptr %5, align 4, !tbaa !20
  %21 = zext i32 %20 to i64
  %22 = getelementptr inbounds nuw %struct.b2DynamicTree, ptr %19, i64 %21
  %23 = load i32, ptr %6, align 4, !tbaa !20
  call void @b2DynamicTree_DestroyProxy(ptr noundef %22, i32 noundef %23)
  call void @llvm.lifetime.end.p0(i64 4, ptr %6) #8
  call void @llvm.lifetime.end.p0(i64 4, ptr %5) #8
  ret void
}