; Function Attrs: nounwind uwtable
define hidden void @b2BroadPhase_DestroyProxy(ptr noundef %0, i32 noundef %1) local_unnamed_addr #0 {
  %3 = getelementptr inbounds nuw i8, ptr %0, i64 224
  %4 = add nsw i32 %1, 1
  %5 = sext i32 %4 to i64
  %6 = tail call zeroext i1 @b2RemoveKey(ptr noundef nonnull %3, i64 noundef %5) #8
  br i1 %6, label %7, label %b2UnBufferMove.exit

7:                                                ; preds = %2
  %8 = getelementptr inbounds nuw i8, ptr %0, i64 248
  %9 = load i32, ptr %8, align 8, !tbaa !32
  %10 = icmp sgt i32 %9, 0
  br i1 %10, label %.lr.ph.i, label %b2UnBufferMove.exit

.lr.ph.i:                                         ; preds = %7
  %11 = getelementptr inbounds nuw i8, ptr %0, i64 240
  %12 = load ptr, ptr %11, align 8, !tbaa !33
  %wide.trip.count.i = zext nneg i32 %9 to i64
  br label %13

13:                                               ; preds = %26, %.lr.ph.i
  %indvars.iv.i = phi i64 [ 0, %.lr.ph.i ], [ %indvars.iv.next.i, %26 ]
  %14 = getelementptr inbounds nuw i32, ptr %12, i64 %indvars.iv.i
  %15 = load i32, ptr %14, align 4, !tbaa !21
  %16 = icmp eq i32 %15, %1
  br i1 %16, label %17, label %26

17:                                               ; preds = %13
  %18 = trunc nuw nsw i64 %indvars.iv.i to i32
  %19 = add nsw i32 %9, -1
  %.not.i.i = icmp eq i32 %19, %18
  br i1 %.not.i.i, label %b2IntArray_RemoveSwap.exit.i, label %20

20:                                               ; preds = %17
  %21 = sext i32 %19 to i64
  %22 = getelementptr inbounds i32, ptr %12, i64 %21
  %23 = load i32, ptr %22, align 4, !tbaa !21
  %24 = and i64 %indvars.iv.i, 4294967295
  %25 = getelementptr inbounds nuw i32, ptr %12, i64 %24
  store i32 %23, ptr %25, align 4, !tbaa !21
  %.pre.i.i = load i32, ptr %8, align 8, !tbaa !29
  %.pre10.i.i = add nsw i32 %.pre.i.i, -1
  br label %b2IntArray_RemoveSwap.exit.i

b2IntArray_RemoveSwap.exit.i:                     ; preds = %20, %17
  %.pre-phi.i.i = phi i32 [ %.pre10.i.i, %20 ], [ %18, %17 ]
  store i32 %.pre-phi.i.i, ptr %8, align 8, !tbaa !29
  br label %b2UnBufferMove.exit

26:                                               ; preds = %13
  %indvars.iv.next.i = add nuw nsw i64 %indvars.iv.i, 1
  %exitcond.not.i = icmp eq i64 %indvars.iv.next.i, %wide.trip.count.i
  br i1 %exitcond.not.i, label %b2UnBufferMove.exit, label %13, !llvm.loop !34

b2UnBufferMove.exit:                              ; preds = %26, %2, %7, %b2IntArray_RemoveSwap.exit.i
  %27 = getelementptr inbounds nuw i8, ptr %0, i64 216
  %28 = load i32, ptr %27, align 8, !tbaa !3
  %29 = add nsw i32 %28, -1
  store i32 %29, ptr %27, align 8, !tbaa !3
  %30 = and i32 %1, 3
  %31 = ashr i32 %1, 2
  %32 = zext nneg i32 %30 to i64
  %33 = getelementptr inbounds nuw %struct.b2DynamicTree, ptr %0, i64 %32
  tail call void @b2DynamicTree_DestroyProxy(ptr noundef %33, i32 noundef %31) #8
  ret void
}